; Function Attrs: mustprogress uwtable
define hidden void @_ZN12opencv_caffe5Datum5ClearEv(ptr noundef nonnull align 8 dereferenceable(72) initializes((24, 28)) %0) unnamed_addr #3 align 2 personality ptr @__gxx_personality_v0 {
  %2 = getelementptr inbounds nuw i8, ptr %0, i64 24
  store i32 0, ptr %2, align 8, !tbaa !65
  %3 = getelementptr inbounds nuw i8, ptr %0, i64 16
  %4 = load i32, ptr %3, align 8, !tbaa !71
  %5 = and i32 %4, 1
  %.not = icmp eq i32 %5, 0
  br i1 %.not, label %14, label %6

6:                                                ; preds = %1
  %7 = getelementptr inbounds nuw i8, ptr %0, i64 40
  %8 = load ptr, ptr %7, align 8, !tbaa !70
  %9 = ptrtoint ptr %8 to i64
  %10 = and i64 %9, -2
  %11 = inttoptr i64 %10 to ptr
  %12 = getelementptr inbounds nuw i8, ptr %11, i64 8
  store i64 0, ptr %12, align 8, !tbaa !72
  %13 = load ptr, ptr %11, align 8, !tbaa !75
  store i8 0, ptr %13, align 1, !tbaa !36
  br label %14

14:                                               ; preds = %6, %1
  %15 = and i32 %4, 62
  %.not2 = icmp eq i32 %15, 0
  br i1 %.not2, label %18, label %16

16:                                               ; preds = %14
  %17 = getelementptr inbounds nuw i8, ptr %0, i64 48
  tail call void @llvm.memset.p0.i64(ptr noundef nonnull align 8 dereferenceable(17) %17, i8 0, i64 17, i1 false)
  br label %18

18:                                               ; preds = %16, %14
  store i32 0, ptr %3, align 8
  %19 = getelementptr inbounds nuw i8, ptr %0, i64 8
  %20 = load i64, ptr %19, align 8, !tbaa !8
  %21 = and i64 %20, 1
  %.not3 = icmp eq i64 %21, 0
  br i1 %.not3, label %_ZN6google8protobuf8internal16InternalMetadata5ClearINS0_15UnknownFieldSetEEEvv.exit, label %22

22:                                               ; preds = %18
  tail call void @_ZN6google8protobuf8internal16InternalMetadata7DoClearINS0_15UnknownFieldSetEEEvv(ptr noundef nonnull align 8 dereferenceable(8) %19)
  br label %_ZN6google8protobuf8internal16InternalMetadata5ClearINS0_15UnknownFieldSetEEEvv.exit

_ZN6google8protobuf8internal16InternalMetadata5ClearINS0_15UnknownFieldSetEEEvv.exit: ; preds = %18, %22
  ret void
}